; Function Attrs: nofree norecurse nosync nounwind memory(read, inaccessiblemem: none) uwtable
define i32 @GetGlyphIndex(ptr noundef readonly byval(%struct.Font) align 8 captures(none) %0, i32 noundef %1) local_unnamed_addr #18 {
  %3 = load i32, ptr %0, align 8
  %4 = icmp sgt i32 %3, 0
  %5 = getelementptr inbounds nuw i8, ptr %0, i64 4
  %6 = load i32, ptr %5, align 4
  %7 = icmp sgt i32 %6, 0
  %or.cond.i = select i1 %4, i1 %7, i1 false
  %8 = getelementptr inbounds nuw i8, ptr %0, i64 32
  %9 = load ptr, ptr %8, align 8
  %10 = icmp ne ptr %9, null
  %or.cond5.i = select i1 %or.cond.i, i1 %10, i1 false
  %11 = getelementptr inbounds nuw i8, ptr %0, i64 40
  %12 = load ptr, ptr %11, align 8
  %13 = icmp ne ptr %12, null
  %or.cond = select i1 %or.cond5.i, i1 %13, i1 false
  br i1 %or.cond, label %.preheader, label %IsFontValid.exit.thread

.preheader:                                       ; preds = %2
  %wide.trip.count = zext nneg i32 %6 to i64
  br label %14

14:                                               ; preds = %.preheader, %20
  %indvars.iv = phi i64 [ 0, %.preheader ], [ %indvars.iv.next, %20 ]
  %.01325 = phi i32 [ 0, %.preheader ], [ %spec.select, %20 ]
  %15 = getelementptr inbounds nuw %struct.GlyphInfo, ptr %12, i64 %indvars.iv
  %16 = load i32, ptr %15, align 8
  %17 = icmp eq i32 %16, 63
  %18 = trunc nuw nsw i64 %indvars.iv to i32
  %spec.select = select i1 %17, i32 %18, i32 %.01325
  %19 = icmp eq i32 %16, %1
  br i1 %19, label %21, label %20

20:                                               ; preds = %14
  %indvars.iv.next = add nuw nsw i64 %indvars.iv, 1
  %exitcond.not = icmp eq i64 %indvars.iv.next, %wide.trip.count
  br i1 %exitcond.not, label %.thread, label %14

21:                                               ; preds = %14
  %22 = icmp eq i64 %indvars.iv, 0
  br i1 %22, label %.thread, label %IsFontValid.exit.thread

.thread:                                          ; preds = %20, %21
  %23 = load i32, ptr %12, align 8
  %.not = icmp eq i32 %23, %1
  %spec.select17 = select i1 %.not, i32 0, i32 %spec.select
  br label %IsFontValid.exit.thread

IsFontValid.exit.thread:                          ; preds = %2, %.thread, %21
  %.016 = phi i32 [ %18, %21 ], [ %spec.select17, %.thread ], [ 0, %2 ]
  ret i32 %.016
}